; Function Attrs: mustprogress uwtable
define hidden void @_ZNK10__cxxabiv120__si_class_type_info16search_above_dstEPNS_19__dynamic_cast_infoEPKvS4_ib(ptr noundef nonnull readonly align 8 captures(address) dereferenceable(24) %0, ptr noundef %1, ptr noundef %2, ptr noundef %3, i32 noundef %4, i1 noundef zeroext %5) unnamed_addr #7 align 2 {
  %7 = getelementptr inbounds nuw i8, ptr %1, i64 16
  %8 = load ptr, ptr %7, align 8, !tbaa !18
  br i1 %5, label %15, label %9

9:                                                ; preds = %6
  %10 = getelementptr inbounds nuw i8, ptr %0, i64 8
  %11 = load ptr, ptr %10, align 8, !tbaa !4
  %12 = getelementptr inbounds nuw i8, ptr %8, i64 8
  %13 = load ptr, ptr %12, align 8, !tbaa !4
  %14 = icmp eq ptr %11, %13
  br i1 %14, label %_ZL8is_equalPKSt9type_infoS1_b.exit.thread, label %57

15:                                               ; preds = %6
  %16 = icmp eq ptr %0, %8
  br i1 %16, label %_ZL8is_equalPKSt9type_infoS1_b.exit.thread, label %_ZL8is_equalPKSt9type_infoS1_b.exit

_ZL8is_equalPKSt9type_infoS1_b.exit:              ; preds = %15
  %17 = getelementptr inbounds nuw i8, ptr %0, i64 8
  %18 = load ptr, ptr %17, align 8, !tbaa !4
  %19 = getelementptr inbounds nuw i8, ptr %8, i64 8
  %20 = load ptr, ptr %19, align 8, !tbaa !4
  %21 = tail call i32 @strcmp(ptr noundef nonnull dereferenceable(1) %18, ptr noundef nonnull dereferenceable(1) %20) #22
  %22 = icmp eq i32 %21, 0
  br i1 %22, label %_ZL8is_equalPKSt9type_infoS1_b.exit.thread, label %57

_ZL8is_equalPKSt9type_infoS1_b.exit.thread:       ; preds = %15, %9, %_ZL8is_equalPKSt9type_infoS1_b.exit
  %23 = getelementptr inbounds nuw i8, ptr %1, i64 77
  store i8 1, ptr %23, align 1, !tbaa !30
  %24 = getelementptr inbounds nuw i8, ptr %1, i64 8
  %25 = load ptr, ptr %24, align 8, !tbaa !17
  %26 = icmp eq ptr %3, %25
  br i1 %26, label %27, label %_ZNK10__cxxabiv117__class_type_info29process_static_type_above_dstEPNS_19__dynamic_cast_infoEPKvS4_i.exit

27:                                               ; preds = %_ZL8is_equalPKSt9type_infoS1_b.exit.thread
  %28 = getelementptr inbounds nuw i8, ptr %1, i64 76
  store i8 1, ptr %28, align 4, !tbaa !29
  %29 = getelementptr inbounds nuw i8, ptr %1, i64 32
  %30 = load ptr, ptr %29, align 8, !tbaa !26
  %31 = icmp eq ptr %30, null
  br i1 %31, label %32, label %39

32:                                               ; preds = %27
  store ptr %2, ptr %29, align 8, !tbaa !26
  %33 = getelementptr inbounds nuw i8, ptr %1, i64 48
  store i32 %4, ptr %33, align 8, !tbaa !25
  %34 = getelementptr inbounds nuw i8, ptr %1, i64 60
  store i32 1, ptr %34, align 4, !tbaa !32
  %35 = getelementptr inbounds nuw i8, ptr %1, i64 72
  %36 = load i32, ptr %35, align 8, !tbaa !22
  %37 = icmp eq i32 %36, 1
  %38 = icmp eq i32 %4, 1
  %or.cond.i = and i1 %38, %37
  br i1 %or.cond.i, label %.sink.split.i, label %_ZNK10__cxxabiv117__class_type_info29process_static_type_above_dstEPNS_19__dynamic_cast_infoEPKvS4_i.exit

39:                                               ; preds = %27
  %40 = icmp eq ptr %30, %2
  br i1 %40, label %41, label %52

41:                                               ; preds = %39
  %42 = getelementptr inbounds nuw i8, ptr %1, i64 48
  %43 = load i32, ptr %42, align 8, !tbaa !25
  %44 = icmp eq i32 %43, 2
  br i1 %44, label %45, label %46

45:                                               ; preds = %41
  store i32 %4, ptr %42, align 8, !tbaa !25
  br label %46

46:                                               ; preds = %45, %41
  %47 = phi i32 [ %4, %45 ], [ %43, %41 ]
  %48 = getelementptr inbounds nuw i8, ptr %1, i64 72
  %49 = load i32, ptr %48, align 8, !tbaa !22
  %50 = icmp eq i32 %49, 1
  %51 = icmp eq i32 %47, 1
  %or.cond22.i = and i1 %51, %50
  br i1 %or.cond22.i, label %.sink.split.i, label %_ZNK10__cxxabiv117__class_type_info29process_static_type_above_dstEPNS_19__dynamic_cast_infoEPKvS4_i.exit

52:                                               ; preds = %39
  %53 = getelementptr inbounds nuw i8, ptr %1, i64 60
  %54 = load i32, ptr %53, align 4, !tbaa !32
  %55 = add nsw i32 %54, 1
  store i32 %55, ptr %53, align 4, !tbaa !32
  br label %.sink.split.i

.sink.split.i:                                    ; preds = %52, %46, %32
  %56 = getelementptr inbounds nuw i8, ptr %1, i64 78
  store i8 1, ptr %56, align 2, !tbaa !31
  br label %_ZNK10__cxxabiv117__class_type_info29process_static_type_above_dstEPNS_19__dynamic_cast_infoEPKvS4_i.exit

57:                                               ; preds = %9, %_ZL8is_equalPKSt9type_infoS1_b.exit
  %58 = getelementptr inbounds nuw i8, ptr %0, i64 16
  %59 = load ptr, ptr %58, align 8, !tbaa !35
  %60 = load ptr, ptr %59, align 8, !tbaa !23
  %61 = getelementptr inbounds nuw i8, ptr %60, i64 40
  %62 = load ptr, ptr %61, align 8
  tail call void %62(ptr noundef nonnull align 8 dereferenceable(16) %59, ptr noundef nonnull %1, ptr noundef %2, ptr noundef %3, i32 noundef %4, i1 noundef zeroext %5)
  br label %_ZNK10__cxxabiv117__class_type_info29process_static_type_above_dstEPNS_19__dynamic_cast_infoEPKvS4_i.exit

_ZNK10__cxxabiv117__class_type_info29process_static_type_above_dstEPNS_19__dynamic_cast_infoEPKvS4_i.exit: ; preds = %.sink.split.i, %46, %32, %_ZL8is_equalPKSt9type_infoS1_b.exit.thread, %57
  ret void
}